; Function Attrs: mustprogress nofree norecurse nosync nounwind willreturn memory(argmem: write) uwtable
define dso_local noundef ptr @LZ4_initStreamHC(ptr noundef %0, i64 noundef %1) local_unnamed_addr #7 {
  %3 = icmp ne ptr %0, null
  %4 = icmp ugt i64 %1, 262199
  %or.cond.not13 = and i1 %3, %4
  %5 = ptrtoint ptr %0 to i64
  %6 = and i64 %5, 7
  %.not = icmp eq i64 %6, 0
  %or.cond10 = and i1 %or.cond.not13, %.not
  br i1 %or.cond10, label %7, label %9

7:                                                ; preds = %2
  tail call void @llvm.memset.p0.i64(ptr noundef nonnull align 8 dereferenceable(262192) %0, i8 0, i64 262192, i1 false)
  %8 = getelementptr inbounds nuw i8, ptr %0, i64 262180
  store i16 9, ptr %8, align 4, !tbaa !26
  br label %9

9:                                                ; preds = %2, %7
  %.0 = phi ptr [ %0, %7 ], [ null, %2 ]
  ret ptr %.0
}